target datalayout = "e-m:e-p270:32:32-p271:32:32-p272:64:64-i64:64-i128:128-f80:128-n8:16:32:64-S128"
target triple = "x86_64-pc-linux-gnu"

%struct.GenericCosts = type { double, double, double, double, double, double, double, double }

; Function Attrs: nounwind uwtable
define dso_local void @hashcostestimate(ptr noundef %0, ptr noundef %1, double noundef %2, ptr noundef %3, ptr noundef %4, ptr noundef %5, ptr noundef %6, ptr noundef %7) #0 {
  %9 = alloca ptr, align 8
  %10 = alloca ptr, align 8
  %11 = alloca double, align 8
  %12 = alloca ptr, align 8
  %13 = alloca ptr, align 8
  %14 = alloca ptr, align 8
  %15 = alloca ptr, align 8
  %16 = alloca ptr, align 8
  %17 = alloca %struct.GenericCosts, align 8
  store ptr %0, ptr %9, align 8
  store ptr %1, ptr %10, align 8
  store double %2, ptr %11, align 8
  store ptr %3, ptr %12, align 8
  store ptr %4, ptr %13, align 8
  store ptr %5, ptr %14, align 8
  store ptr %6, ptr %15, align 8
  store ptr %7, ptr %16, align 8
  call void @llvm.lifetime.start.p0(i64 64, ptr %17) #10
  call void @llvm.memset.p0.i64(ptr align 8 %17, i8 0, i64 64, i1 false)
  %18 = load ptr, ptr %9, align 8
  %19 = load ptr, ptr %10, align 8
  %20 = load double, ptr %11, align 8
  call void @genericcostestimate(ptr noundef %18, ptr noundef %19, double noundef %20, ptr noundef %17)
  %21 = getelementptr inbounds nuw %struct.GenericCosts, ptr %17, i32 0, i32 0
  %22 = load double, ptr %21, align 8
  %23 = load ptr, ptr %12, align 8
  store double %22, ptr %23, align 8
  %24 = getelementptr inbounds nuw %struct.GenericCosts, ptr %17, i32 0, i32 1
  %25 = load double, ptr %24, align 8
  %26 = load ptr, ptr %13, align 8
  store double %25, ptr %26, align 8
  %27 = getelementptr inbounds nuw %struct.GenericCosts, ptr %17, i32 0, i32 2
  %28 = load double, ptr %27, align 8
  %29 = load ptr, ptr %14, align 8
  store double %28, ptr %29, align 8
  %30 = getelementptr inbounds nuw %struct.GenericCosts, ptr %17, i32 0, i32 3
  %31 = load double, ptr %30, align 8
  %32 = load ptr, ptr %15, align 8
  store double %31, ptr %32, align 8
  %33 = getelementptr inbounds nuw %struct.GenericCosts, ptr %17, i32 0, i32 4
  %34 = load double, ptr %33, align 8
  %35 = load ptr, ptr %16, align 8
  store double %34, ptr %35, align 8
  call void @llvm.lifetime.end.p0(i64 64, ptr %17) #10
  ret void
}