; Function Attrs: nounwind uwtable
define dso_local void @hashcostestimate(ptr noundef %0, ptr noundef readonly captures(none) %1, double noundef %2, ptr noundef writeonly captures(none) initializes((0, 8)) %3, ptr noundef writeonly captures(none) initializes((0, 8)) %4, ptr noundef writeonly captures(none) initializes((0, 8)) %5, ptr noundef writeonly captures(none) initializes((0, 8)) %6, ptr noundef writeonly captures(none) initializes((0, 8)) %7) local_unnamed_addr #0 {
  %9 = alloca %struct.GenericCosts, align 8
  call void @llvm.lifetime.start.p0(i64 64, ptr nonnull %9) #12
  call void @llvm.memset.p0.i64(ptr noundef nonnull align 8 dereferenceable(64) %9, i8 0, i64 64, i1 false)
  call void @genericcostestimate(ptr noundef %0, ptr noundef %1, double noundef %2, ptr noundef nonnull %9)
  %10 = load double, ptr %9, align 8
  store double %10, ptr %3, align 8
  %11 = getelementptr inbounds nuw i8, ptr %9, i64 8
  %12 = load double, ptr %11, align 8
  store double %12, ptr %4, align 8
  %13 = getelementptr inbounds nuw i8, ptr %9, i64 16
  %14 = load double, ptr %13, align 8
  store double %14, ptr %5, align 8
  %15 = getelementptr inbounds nuw i8, ptr %9, i64 24
  %16 = load double, ptr %15, align 8
  store double %16, ptr %6, align 8
  %17 = getelementptr inbounds nuw i8, ptr %9, i64 32
  %18 = load double, ptr %17, align 8
  store double %18, ptr %7, align 8
  call void @llvm.lifetime.end.p0(i64 64, ptr nonnull %9) #12
  ret void
}